target datalayout = "e-m:e-p270:32:32-p271:32:32-p272:64:64-i64:64-i128:128-f80:128-n8:16:32:64-S128"
target triple = "x86_64-pc-linux-gnu"

%struct.AlterSeqStmt = type { i32, ptr, ptr, i8, i8 }

; Function Attrs: nounwind uwtable
define internal zeroext i1 @_equalAlterSeqStmt(ptr noundef %0, ptr noundef %1) #0 {
  %3 = alloca i1, align 1
  %4 = alloca ptr, align 8
  %5 = alloca ptr, align 8
  store ptr %0, ptr %4, align 8
  store ptr %1, ptr %5, align 8
  br label %6

6:                                                ; preds = %2
  %7 = load ptr, ptr %4, align 8
  %8 = getelementptr inbounds nuw %struct.AlterSeqStmt, ptr %7, i32 0, i32 1
  %9 = load ptr, ptr %8, align 8
  %10 = load ptr, ptr %5, align 8
  %11 = getelementptr inbounds nuw %struct.AlterSeqStmt, ptr %10, i32 0, i32 1
  %12 = load ptr, ptr %11, align 8
  %13 = call zeroext i1 @equal(ptr noundef %9, ptr noundef %12)
  br i1 %13, label %15, label %14

14:                                               ; preds = %6
  store i1 false, ptr %3, align 1
  br label %58

15:                                               ; preds = %6
  br label %16

16:                                               ; preds = %15
  br label %17

17:                                               ; preds = %16
  %18 = load ptr, ptr %4, align 8
  %19 = getelementptr inbounds nuw %struct.AlterSeqStmt, ptr %18, i32 0, i32 2
  %20 = load ptr, ptr %19, align 8
  %21 = load ptr, ptr %5, align 8
  %22 = getelementptr inbounds nuw %struct.AlterSeqStmt, ptr %21, i32 0, i32 2
  %23 = load ptr, ptr %22, align 8
  %24 = call zeroext i1 @equal(ptr noundef %20, ptr noundef %23)
  br i1 %24, label %26, label %25

25:                                               ; preds = %17
  store i1 false, ptr %3, align 1
  br label %58

26:                                               ; preds = %17
  br label %27

27:                                               ; preds = %26
  br label %28

28:                                               ; preds = %27
  %29 = load ptr, ptr %4, align 8
  %30 = getelementptr inbounds nuw %struct.AlterSeqStmt, ptr %29, i32 0, i32 3
  %31 = load i8, ptr %30, align 8, !range !4, !noundef !5
  %32 = trunc i8 %31 to i1
  %33 = zext i1 %32 to i32
  %34 = load ptr, ptr %5, align 8
  %35 = getelementptr inbounds nuw %struct.AlterSeqStmt, ptr %34, i32 0, i32 3
  %36 = load i8, ptr %35, align 8, !range !4, !noundef !5
  %37 = trunc i8 %36 to i1
  %38 = zext i1 %37 to i32
  %39 = icmp ne i32 %33, %38
  br i1 %39, label %40, label %41

40:                                               ; preds = %28
  store i1 false, ptr %3, align 1
  br label %58

41:                                               ; preds = %28
  br label %42

42:                                               ; preds = %41
  br label %43

43:                                               ; preds = %42
  %44 = load ptr, ptr %4, align 8
  %45 = getelementptr inbounds nuw %struct.AlterSeqStmt, ptr %44, i32 0, i32 4
  %46 = load i8, ptr %45, align 1, !range !4, !noundef !5
  %47 = trunc i8 %46 to i1
  %48 = zext i1 %47 to i32
  %49 = load ptr, ptr %5, align 8
  %50 = getelementptr inbounds nuw %struct.AlterSeqStmt, ptr %49, i32 0, i32 4
  %51 = load i8, ptr %50, align 1, !range !4, !noundef !5
  %52 = trunc i8 %51 to i1
  %53 = zext i1 %52 to i32
  %54 = icmp ne i32 %48, %53
  br i1 %54, label %55, label %56

55:                                               ; preds = %43
  store i1 false, ptr %3, align 1
  br label %58

56:                                               ; preds = %43
  br label %57

57:                                               ; preds = %56
  store i1 true, ptr %3, align 1
  br label %58

58:                                               ; preds = %57, %55, %40, %25, %14
  %59 = load i1, ptr %3, align 1
  ret i1 %59
}